; Function Attrs: nounwind uwtable
define hidden void @zflf_strtr_2(ptr noundef writeonly captures(none) %0, ptr noundef %1, ptr noundef %2) local_unnamed_addr #0 {
  %4 = alloca %struct._zval_struct, align 8
  %5 = alloca ptr, align 8
  call void @llvm.lifetime.start.p0(i64 16, ptr nonnull %4) #28
  call void @llvm.lifetime.start.p0(i64 8, ptr nonnull %5) #28
  %6 = getelementptr inbounds nuw i8, ptr %1, i64 8
  %7 = load i8, ptr %6, align 8, !tbaa !10
  %8 = icmp eq i8 %7, 6
  %9 = load ptr, ptr %1, align 8, !tbaa !10
  br i1 %8, label %.sink.split, label %10

10:                                               ; preds = %3
  %11 = load i32, ptr %6, align 8, !tbaa !10
  store ptr %9, ptr %4, align 8, !tbaa !10
  %12 = getelementptr inbounds nuw i8, ptr %4, i64 8
  store i32 %11, ptr %12, align 8, !tbaa !10
  %13 = and i32 %11, 65280
  %.not = icmp eq i32 %13, 0
  %14 = trunc i32 %11 to i8
  br i1 %.not, label %18, label %15

15:                                               ; preds = %10
  %16 = load i32, ptr %9, align 4, !tbaa !21
  %17 = add i32 %16, 1
  store i32 %17, ptr %9, align 4, !tbaa !21
  %.pre = load i8, ptr %12, align 8, !tbaa !10
  br label %18

18:                                               ; preds = %15, %10
  %19 = phi i8 [ %.pre, %15 ], [ %14, %10 ]
  %20 = icmp eq i8 %19, 6
  br i1 %20, label %zend_parse_arg_str_ex.exit.thread, label %zend_parse_arg_str_ex.exit, !prof !12

zend_parse_arg_str_ex.exit.thread:                ; preds = %18
  %21 = load ptr, ptr %4, align 8, !tbaa !10
  br label %.sink.split

zend_parse_arg_str_ex.exit:                       ; preds = %18
  %22 = call zeroext i1 @zend_flf_parse_arg_str_slow(ptr noundef nonnull %4, ptr noundef nonnull %5, i32 noundef 1) #28
  br i1 %22, label %23, label %.thread

.thread:                                          ; preds = %zend_parse_arg_str_ex.exit
  call void @zend_wrong_parameter_type_error(i32 noundef 1, i32 noundef 4, ptr noundef nonnull %4) #28
  br label %39

.sink.split:                                      ; preds = %3, %zend_parse_arg_str_ex.exit.thread
  %.sink = phi ptr [ %21, %zend_parse_arg_str_ex.exit.thread ], [ %9, %3 ]
  %.0.ph = phi ptr [ %4, %zend_parse_arg_str_ex.exit.thread ], [ %1, %3 ]
  store ptr %.sink, ptr %5, align 8, !tbaa !13
  br label %23

23:                                               ; preds = %.sink.split, %zend_parse_arg_str_ex.exit
  %.0 = phi ptr [ %4, %zend_parse_arg_str_ex.exit ], [ %.0.ph, %.sink.split ]
  %24 = getelementptr inbounds nuw i8, ptr %2, i64 8
  %25 = load i8, ptr %24, align 8, !tbaa !10
  %26 = icmp eq i8 %25, 7
  br i1 %26, label %27, label %zend_parse_arg_array.exit, !prof !12

zend_parse_arg_array.exit:                        ; preds = %23
  call void @zend_wrong_parameter_type_error(i32 noundef 2, i32 noundef 6, ptr noundef nonnull %2) #28
  br label %37

27:                                               ; preds = %23
  %28 = load ptr, ptr %5, align 8, !tbaa !13
  %29 = getelementptr inbounds nuw i8, ptr %28, i64 16
  %30 = load i64, ptr %29, align 8, !tbaa !16
  %31 = icmp eq i64 %30, 0
  br i1 %31, label %32, label %35

32:                                               ; preds = %27
  %33 = load ptr, ptr @zend_empty_string, align 8, !tbaa !13
  store ptr %33, ptr %0, align 8, !tbaa !10
  %34 = getelementptr inbounds nuw i8, ptr %0, i64 8
  store i32 6, ptr %34, align 8, !tbaa !10
  br label %37

35:                                               ; preds = %27
  %36 = load ptr, ptr %2, align 8, !tbaa !10
  call fastcc void @php_strtr_array(ptr noundef %0, ptr noundef nonnull %28, ptr noundef %36)
  br label %37

37:                                               ; preds = %35, %32, %zend_parse_arg_array.exit
  %38 = icmp eq ptr %.0, %4
  br i1 %38, label %39, label %40, !prof !15

39:                                               ; preds = %.thread, %37
  %.125 = phi ptr [ %4, %.thread ], [ %.0, %37 ]
  call void @zval_ptr_dtor(ptr noundef nonnull %.125) #28
  br label %40

40:                                               ; preds = %39, %37
  call void @llvm.lifetime.end.p0(i64 8, ptr nonnull %5) #28
  call void @llvm.lifetime.end.p0(i64 16, ptr nonnull %4) #28
  ret void
}